Certificate:
    Data:
        Version: 3 (0x2)
        Serial Number:
            fd:36:55:d4:5b:de:b5:f3
    Signature Algorithm: sha256WithRSAEncryption
        Issuer: C=ES, ST=Malaga, L=Malaga, O=MOTAM, CN=CA de MOTAM
        Validity
            Not Before: Jul 29 12:37:58 2019 GMT
            Not After : Jul 28 12:37:58 2020 GMT
        Subject: C=ES, ST=Malaga, L=Malaga, O=MOTAM, OU=1, CN=9999FFF/emailAddress=emergencia@motam.es
        Subject Public Key Info:
            Public Key Algorithm: rsaEncryption
                Public-Key: (2048 bit)
                Modulus:
                    00:aa:7e:19:c9:45:64:b5:76:07:99:08:67:a9:d9:
                    10:6c:2b:7a:3b:42:46:61:8c:0c:7d:62:eb:ea:5e:
                    82:1d:cf:0c:92:83:e9:8e:c6:f9:65:81:cc:0d:42:
                    9c:1b:7b:1f:f2:fe:73:4b:a7:94:9e:7b:f5:23:6c:
                    e3:83:24:b8:3b:08:ec:5d:99:fe:08:39:65:e4:32:
                    ce:3c:20:77:9a:e2:c9:8d:83:82:dc:46:4d:45:5c:
                    87:77:06:b2:75:0c:4a:a1:74:5d:d3:46:2f:f1:6c:
                    bf:29:bc:44:28:62:01:ce:d4:cf:27:be:53:fa:f2:
                    d0:62:a9:d5:66:e3:6a:4b:78:b6:48:8f:59:c5:95:
                    00:33:d7:20:da:e2:80:b8:2c:9f:a6:23:1a:e3:35:
                    34:d2:b4:f7:78:b4:c7:cc:e2:ae:73:72:39:1b:79:
                    6f:01:06:21:fd:f5:20:06:a1:c6:87:02:ca:aa:33:
                    08:d9:a3:a7:a4:15:05:83:1a:25:fb:45:f1:68:ea:
                    52:07:e0:28:bd:91:8a:85:7e:2d:73:2e:ce:8e:5b:
                    d1:2b:ac:e7:68:00:62:96:b0:3a:9b:13:db:c6:d1:
                    62:b8:63:2d:c7:53:e1:a6:3b:17:b6:ae:a6:a1:10:
                    81:10:5b:ea:a3:70:81:de:13:e4:50:18:2b:0f:dd:
                    1d:23
                Exponent: 65537 (0x10001)
        X509v3 extensions:
            X509v3 Basic Constraints: 
                CA:FALSE
            X509v3 Key Usage: 
                Digital Signature, Non Repudiation, Key Encipherment
            X509v3 Subject Alternative Name: 
                IP Address:192.168.0.1
    Signature Algorithm: sha256WithRSAEncryption
         03:30:b6:e7:73:89:7f:9c:f0:a7:fa:50:4d:15:af:a3:15:14:
         59:d1:24:0b:8c:ab:af:f1:5a:61:2e:20:14:6f:4c:c7:27:9f:
         28:3c:4a:28:1f:4d:7e:e3:ed:d4:49:eb:6f:e5:c8:5d:10:6a:
         92:34:6b:c2:97:0b:2b:31:0e:73:7e:c2:30:61:e2:16:a4:21:
         77:dc:6f:32:ec:a4:b2:e3:db:73:c4:9d:a6:b1:94:a3:cb:e9:
         ff:ef:c9:95:c5:f0:3c:5f:83:24:80:f4:99:91:6e:68:d2:39:
         96:2e:bb:e5:00:fd:d4:66:a0:2b:7c:60:6d:eb:5b:8d:26:a3:
         5a:8b:b7:32:f7:1b:ea:33:03:67:0e:b4:ae:80:c2:80:84:ef:
         b2:29:bc:ec:d6:3c:ba:a9:65:2d:f4:7f:68:d9:af:aa:be:c6:
         82:45:f8:50:14:aa:ab:40:3e:76:5c:37:a4:68:f4:ee:32:6c:
         53:fe:06:f2:78:11:0f:21:c4:27:e3:09:1b:b6:3b:79:2d:42:
         cd:de:32:fb:c9:a5:e9:63:b6:f7:eb:87:02:05:25:0e:c8:15:
         a7:65:d7:c9:45:65:48:b0:14:d7:17:dd:26:44:d4:a8:bf:2c:
         cc:97:e6:19:86:d4:a1:55:8b:f1:53:34:ae:d7:06:76:ca:ee:
         6c:66:4f:79
-----BEGIN CERTIFICATE-----
MIIDhTCCAm2gAwIBAgIJAP02VdRb3rXzMA0GCSqGSIb3DQEBCwUAMFUxCzAJBgNV
BAYTAkVTMQ8wDQYDVQQIEwZNYWxhZ2ExDzANBgNVBAcTBk1hbGFnYTEOMAwGA1UE
ChMFTU9UQU0xFDASBgNVBAMTC0NBIGRlIE1PVEFNMB4XDTE5MDcyOTEyMzc1OFoX
DTIwMDcyODEyMzc1OFowgYExCzAJBgNVBAYTAkVTMQ8wDQYDVQQIEwZNYWxhZ2Ex
DzANBgNVBAcTBk1hbGFnYTEOMAwGA1UEChMFTU9UQU0xCjAIBgNVBAsTATExEDAO
BgNVBAMTBzk5OTlGRkYxIjAgBgkqhkiG9w0BCQEWE2VtZXJnZW5jaWFAbW90YW0u
ZXMwggEiMA0GCSqGSIb3DQEBAQUAA4IBDwAwggEKAoIBAQCqfhnJRWS1dgeZCGep
2RBsK3o7QkZhjAx9YuvqXoIdzwySg+mOxvllgcwNQpwbex/y/nNLp5See/UjbOOD
JLg7COxdmf4IOWXkMs48IHea4smNg4LcRk1FXId3BrJ1DEqhdF3TRi/xbL8pvEQo
YgHO1M8nvlP68tBiqdVm42pLeLZIj1nFlQAz1yDa4oC4LJ+mIxrjNTTStPd4tMfM
4q5zcjkbeW8BBiH99SAGocaHAsqqMwjZo6ekFQWDGiX7RfFo6lIH4Ci9kYqFfi1z
Ls6OW9ErrOdoAGKWsDqbE9vG0WK4Yy3HU+GmOxe2rqahEIEQW+qjcIHeE+RQGCsP
3R0jAgMBAAGjKzApMAkGA1UdEwQCMAAwCwYDVR0PBAQDAgXgMA8GA1UdEQQIMAaH
BMCoAAEwDQYJKoZIhvcNAQELBQADggEBAAMwtudziX+c8Kf6UE0Vr6MVFFnRJAuM
q6/xWmEuIBRvTMcnnyg8SigfTX7j7dRJ62/lyF0QapI0a8KXCysxDnN+wjBh4hak
IXfcbzLspLLj23PEnaaxlKPL6f/vyZXF8DxfgySA9JmRbmjSOZYuu+UA/dRmoCt8
YG3rW40mo1qLtzL3G+ozA2cOtK6AwoCE77IpvOzWPLqpZS30f2jZr6q+xoJF+FAU
qqtAPnZcN6Ro9O4ybFP+BvJ4EQ8hxCfjCRu2O3ktQs3eMvvJpeljtvfrhwIFJQ7I
Fadl18lFZUiwFNcX3SZE1Ki/LMyX5hmG1KFVi/FTNK7XBnbK7mxmT3k=
-----END CERTIFICATE-----
