Certificate:
    Data:
        Version: 1 (0x0)
        Serial Number: 18245865310900892542 (0xfd3655d45bdeb37e)
    Signature Algorithm: sha256WithRSAEncryption
        Issuer: C=ES, ST=Malaga, L=Malaga, O=MOTAM, CN=CA de MOTAM
        Validity
            Not Before: Feb  7 10:40:00 2019 GMT
            Not After : Feb  7 10:40:00 2020 GMT
        Subject: C=ES, ST=Malaga, L=Malaga, O=MOTAM, OU=lento, CN=1293ABC/emailAddress=lento@motam.es
        Subject Public Key Info:
            Public Key Algorithm: rsaEncryption
                Public-Key: (2048 bit)
                Modulus:
                    00:a6:68:9f:5e:da:1f:89:88:c0:57:4d:cc:06:9b:
                    c5:91:1d:8e:40:40:1b:76:52:03:e1:0c:2e:43:c5:
                    c3:d5:02:20:79:27:e7:18:e6:79:76:35:52:8e:2c:
                    bf:c2:24:28:15:17:00:77:14:86:9c:dc:c5:2d:d8:
                    ce:01:0e:23:6f:55:87:58:02:37:1e:74:bb:f8:c9:
                    58:26:82:30:c1:35:b3:eb:a4:4d:7b:49:ac:71:26:
                    07:bc:6c:f9:07:f8:2e:09:e7:cd:ac:8d:87:38:5a:
                    8d:31:8c:9d:c6:68:ba:8c:05:0a:61:2c:da:90:87:
                    02:dd:bb:a5:3a:f5:0a:49:69:13:3f:87:13:ec:f9:
                    d7:9e:3c:4e:3f:0d:ec:b8:a4:23:2a:61:71:29:e8:
                    00:d0:d6:a5:17:0c:54:23:41:89:d5:77:ed:77:e7:
                    ed:de:f1:33:7e:d1:e4:28:b0:51:14:48:84:4a:56:
                    75:8f:9a:a7:4f:d5:3a:57:91:db:ee:1c:a6:af:83:
                    53:b2:80:43:66:5c:e6:37:d8:39:49:43:6c:6f:da:
                    5f:73:48:a7:7c:8d:ac:ea:ec:9a:c6:fc:eb:9f:1f:
                    60:9a:83:91:bb:dc:98:a6:8e:7d:c3:f5:0e:56:48:
                    07:15:dd:b2:6a:e7:b0:07:2b:a5:21:d5:7c:20:7c:
                    4b:69
                Exponent: 65537 (0x10001)
        X509v3 extensions:
            X509v3 Basic Constraints: 
                CA:FALSE
            X509v3 Key Usage: 
                Digital Signature, Non Repudiation, Key Encipherment
            X509v3 Subject Alternative Name: 
                IP Address:192.168.0.1
    Signature Algorithm: sha256WithRSAEncryption
         56:cf:8b:50:4b:2b:38:7e:b3:48:9d:09:c2:bf:22:53:e3:f4:
         f7:5f:30:ec:5d:e9:e7:fc:ca:88:d7:d3:a7:4b:1a:eb:ce:91:
         41:50:6f:7e:ed:28:1c:cd:34:5f:14:ec:a6:ca:46:7f:83:20:
         af:04:c2:8c:74:61:7b:de:7f:30:eb:c9:a7:c3:50:3d:28:f1:
         d6:80:e5:b1:96:c2:8d:70:43:5e:45:f6:81:ef:20:48:d3:4c:
         3a:18:3a:a5:80:ac:3d:26:d8:fe:c5:3c:b8:8c:f3:c7:34:db:
         ab:53:d9:83:32:b8:1f:af:15:8d:36:25:f7:4c:73:5d:24:c0:
         bc:96:24:c0:80:d1:8e:c7:c8:9b:c4:76:0d:31:5c:0e:ee:e0:
         9e:98:9c:f6:72:98:fa:3d:81:91:93:dd:c9:b4:86:c9:ed:66:
         95:ae:2e:56:23:9b:f9:ba:25:e5:07:b2:91:82:8b:7c:69:6f:
         4f:63:47:ae:71:1e:12:71:aa:5a:c2:7b:66:d2:7b:64:70:6c:
         e1:94:74:b3:bb:4a:75:c5:f3:80:e1:b2:12:3d:14:4d:89:b6:
         c0:17:38:06:0c:c2:53:9d:76:36:10:13:2d:ba:ee:f8:18:ab:
         87:54:f8:d9:c1:08:6a:d0:25:85:fd:f5:9b:17:b9:6d:d7:b9:
         c3:72:05:57
-----BEGIN CERTIFICATE-----
MIIDfzCCAmcCCQD9NlXUW96zfjANBgkqhkiG9w0BAQsFADBVMQswCQYDVQQGEwJF
UzEPMA0GA1UECBMGTWFsYWdhMQ8wDQYDVQQHEwZNYWxhZ2ExDjAMBgNVBAoTBU1P
VEFNMRQwEgYDVQQDEwtDQSBkZSBNT1RBTTAeFw0xOTAyMDcxMDQwMDBaFw0yMDAy
MDcxMDQwMDBaMIGAMQswCQYDVQQGEwJFUzEPMA0GA1UECBMGTWFsYWdhMQ8wDQYD
VQQHEwZNYWxhZ2ExDjAMBgNVBAoTBU1PVEFNMQ4wDAYDVQQLEwVsZW50bzEQMA4G
A1UEAxMHMTI5M0FCQzEdMBsGCSqGSIb3DQEJARYObGVudG9AbW90YW0uZXMwggEi
MA0GCSqGSIb3DQEBAQUAA4IBDwAwggEKAoIBAQCmaJ9e2h+JiMBXTcwGm8WRHY5A
QBt2UgPhDC5DxcPVAiB5J+cY5nl2NVKOLL/CJCgVFwB3FIac3MUt2M4BDiNvVYdY
AjcedLv4yVgmgjDBNbPrpE17SaxxJge8bPkH+C4J582sjYc4Wo0xjJ3GaLqMBQph
LNqQhwLdu6U69QpJaRM/hxPs+deePE4/Dey4pCMqYXEp6ADQ1qUXDFQjQYnVd+13
5+3e8TN+0eQosFEUSIRKVnWPmqdP1TpXkdvuHKavg1OygENmXOY32DlJQ2xv2l9z
SKd8jazq7JrG/OufH2Cag5G73Jimjn3D9Q5WSAcV3bJq57AHK6Uh1XwgfEtpAgMB
AAGjKzApMAkGA1UdEwQCMAAwCwYDVR0PBAQDAgXgMA8GA1UdEQQIMAaHBMCoAAEw
DQYJKoZIhvcNAQELBQADggEBAFbPi1BLKzh+s0idCcK/IlPj9PdfMOxd6ef8yojX
06dLGuvOkUFQb37tKBzNNF8U7KbKRn+DIK8Ewox0YXvefzDryafDUD0o8daA5bGW
wo1wQ15F9oHvIEjTTDoYOqWArD0m2P7FPLiM88c026tT2YMyuB+vFY02JfdMc10k
wLyWJMCA0Y7HyJvEdg0xXA7u4J6YnPZymPo9gZGT3cm0hsntZpWuLlYjm/m6JeUH
spGCi3xpb09jR65xHhJxqlrCe2bSe2RwbOGUdLO7SnXF84DhshI9FE2JtsAXOAYM
wlOddjYQEy267vgYq4dU+NnBCGrQJYX99ZsXuW3XucNyBVc=
-----END CERTIFICATE-----
