Certificate:
    Data:
        Version: 3 (0x2)
        Serial Number:
            fd:36:55:d4:5b:de:b5:f4
    Signature Algorithm: sha256WithRSAEncryption
        Issuer: C=ES, ST=Malaga, L=Malaga, O=MOTAM, CN=CA de MOTAM
        Validity
            Not Before: Jul 29 12:38:28 2019 GMT
            Not After : Jul 28 12:38:28 2020 GMT
        Subject: C=ES, ST=Malaga, L=Malaga, O=MOTAM, OU=2, CN=0000AAA/emailAddress=lento@motam.es
        Subject Public Key Info:
            Public Key Algorithm: rsaEncryption
                Public-Key: (2048 bit)
                Modulus:
                    00:a2:73:ae:5a:62:04:9a:59:95:f3:2f:53:5c:4e:
                    5e:1a:ef:0c:bb:b5:e4:c3:69:ab:2e:4d:f5:94:69:
                    ea:8f:5f:a1:68:ea:ff:39:05:a3:ef:b1:ba:a7:cc:
                    8b:8c:13:1f:a7:4b:a4:3e:14:93:5e:5c:63:a5:93:
                    25:c7:bb:79:1e:88:59:03:a0:f8:f8:69:2b:9a:dd:
                    d6:76:f8:35:71:5c:ff:9a:f5:62:b7:c7:59:68:f0:
                    e3:51:fd:ca:0c:d5:f4:85:a9:56:0b:bb:d5:6f:07:
                    8e:b8:cd:fa:02:40:af:c0:69:1b:b7:35:3b:b6:e8:
                    c3:d0:af:f0:10:62:cf:b0:b0:e7:5a:af:76:1f:29:
                    b3:8a:91:0f:88:f3:ed:48:26:18:0d:df:e2:b0:60:
                    3f:89:9e:ad:83:75:50:75:34:b0:87:0a:28:a2:05:
                    1f:a0:be:0b:1f:a2:f0:76:d7:fb:61:f2:02:20:40:
                    ae:ba:5a:fe:b3:5d:34:69:cf:89:30:12:5f:a8:dc:
                    fe:0f:45:d0:52:d2:df:92:2e:c6:15:e7:fa:74:52:
                    8a:00:7d:e4:19:9f:b8:b8:33:f0:31:ac:d5:f0:3d:
                    95:cc:76:c7:1b:7d:85:42:32:5f:df:bb:d8:b9:73:
                    72:8d:4c:89:3b:69:e4:0d:b9:8a:9f:52:9d:e6:b8:
                    54:7f
                Exponent: 65537 (0x10001)
        X509v3 extensions:
            X509v3 Basic Constraints: 
                CA:FALSE
            X509v3 Key Usage: 
                Digital Signature, Non Repudiation, Key Encipherment
            X509v3 Subject Alternative Name: 
                IP Address:192.168.0.1
    Signature Algorithm: sha256WithRSAEncryption
         6d:9e:de:7c:15:38:33:e7:c6:b1:d9:dc:cb:f4:7a:d5:09:87:
         df:01:a6:38:f2:a7:bb:d0:be:0e:73:69:e0:7c:71:46:48:87:
         62:d3:3f:4e:a1:23:5d:81:f8:83:cb:c8:47:2c:cd:50:f7:29:
         38:df:71:9a:6f:f5:1f:47:7f:22:d7:57:55:4a:1d:94:24:41:
         39:31:ef:be:d4:5e:3f:4b:c4:87:82:ca:2b:90:ac:bd:77:be:
         15:c6:9c:44:2f:b9:98:f3:3d:12:4d:0a:8a:d3:66:a3:99:48:
         4f:b7:31:a5:ee:30:72:ef:02:e6:be:57:cf:01:04:f4:27:55:
         14:25:2d:3b:16:7f:85:93:c4:07:0b:71:fa:75:3e:53:fc:ea:
         21:81:31:3c:dc:38:37:38:d2:e7:5a:f4:3e:fe:6f:f3:aa:af:
         69:37:f5:85:4a:e5:c3:84:77:7f:3e:4a:78:7b:45:f6:9f:0c:
         5f:d6:0e:49:71:0c:ed:fc:0e:4f:9b:17:bc:40:cf:a3:de:33:
         1a:cb:88:71:54:81:1d:72:6e:dc:ae:8d:a2:de:2e:7f:30:d9:
         06:e2:37:48:56:c3:2f:9d:04:a7:58:07:70:79:a8:c9:b4:a8:
         39:46:e7:85:b5:16:fa:e0:c2:fc:64:b9:d3:78:a5:f9:eb:91:
         9b:f8:c3:22
-----BEGIN CERTIFICATE-----
MIIDfzCCAmegAwIBAgIJAP02VdRb3rX0MA0GCSqGSIb3DQEBCwUAMFUxCzAJBgNV
BAYTAkVTMQ8wDQYDVQQIEwZNYWxhZ2ExDzANBgNVBAcTBk1hbGFnYTEOMAwGA1UE
ChMFTU9UQU0xFDASBgNVBAMTC0NBIGRlIE1PVEFNMB4XDTE5MDcyOTEyMzgyOFoX
DTIwMDcyODEyMzgyOFowfDELMAkGA1UEBhMCRVMxDzANBgNVBAgTBk1hbGFnYTEP
MA0GA1UEBxMGTWFsYWdhMQ4wDAYDVQQKEwVNT1RBTTEKMAgGA1UECxMBMjEQMA4G
A1UEAxMHMDAwMEFBQTEdMBsGCSqGSIb3DQEJARYObGVudG9AbW90YW0uZXMwggEi
MA0GCSqGSIb3DQEBAQUAA4IBDwAwggEKAoIBAQCic65aYgSaWZXzL1NcTl4a7wy7
teTDaasuTfWUaeqPX6Fo6v85BaPvsbqnzIuMEx+nS6Q+FJNeXGOlkyXHu3keiFkD
oPj4aSua3dZ2+DVxXP+a9WK3x1lo8ONR/coM1fSFqVYLu9VvB464zfoCQK/AaRu3
NTu26MPQr/AQYs+wsOdar3YfKbOKkQ+I8+1IJhgN3+KwYD+Jnq2DdVB1NLCHCiii
BR+gvgsfovB21/th8gIgQK66Wv6zXTRpz4kwEl+o3P4PRdBS0t+SLsYV5/p0UooA
feQZn7i4M/AxrNXwPZXMdscbfYVCMl/fu9i5c3KNTIk7aeQNuYqfUp3muFR/AgMB
AAGjKzApMAkGA1UdEwQCMAAwCwYDVR0PBAQDAgXgMA8GA1UdEQQIMAaHBMCoAAEw
DQYJKoZIhvcNAQELBQADggEBAG2e3nwVODPnxrHZ3Mv0etUJh98Bpjjyp7vQvg5z
aeB8cUZIh2LTP06hI12B+IPLyEcszVD3KTjfcZpv9R9HfyLXV1VKHZQkQTkx777U
Xj9LxIeCyiuQrL13vhXGnEQvuZjzPRJNCorTZqOZSE+3MaXuMHLvAua+V88BBPQn
VRQlLTsWf4WTxAcLcfp1PlP86iGBMTzcODc40uda9D7+b/Oqr2k39YVK5cOEd38+
Snh7RfafDF/WDklxDO38Dk+bF7xAz6PeMxrLiHFUgR1ybtyujaLeLn8w2QbiN0hW
wy+dBKdYB3B5qMm0qDlG54W1FvrgwvxkudN4pfnrkZv4wyI=
-----END CERTIFICATE-----
