Certificate:
    Data:
        Version: 1 (0x0)
        Serial Number: 18245865310900892541 (0xfd3655d45bdeb37d)
    Signature Algorithm: sha256WithRSAEncryption
        Issuer: C=ES, ST=Malaga, L=Malaga, O=MOTAM, CN=CA de MOTAM
        Validity
            Not Before: Feb  7 10:39:13 2019 GMT
            Not After : Feb  7 10:39:13 2020 GMT
        Subject: C=ES, ST=Malaga, L=Malaga, O=MOTAM, OU=emergencia, CN=5654DFT/emailAddress=emergencia@motam.es
        Subject Public Key Info:
            Public Key Algorithm: rsaEncryption
                Public-Key: (2048 bit)
                Modulus:
                    00:9f:ed:6f:40:c5:3a:72:77:e9:4b:de:4f:5d:6f:
                    9f:30:d0:0d:66:11:64:cd:05:5e:56:98:3f:81:5b:
                    6f:98:a7:99:28:57:ba:10:ea:e2:45:96:d7:4c:6c:
                    ea:37:9b:ec:94:5f:d4:b8:3c:9b:60:3a:32:86:84:
                    07:7f:38:00:9b:ff:f2:cb:6b:5e:d3:c5:33:b3:7e:
                    5d:ad:4d:1b:d7:cd:3f:b2:04:44:36:b9:d7:13:f5:
                    71:de:6f:2a:45:3c:02:7b:85:ac:bf:ac:1e:12:67:
                    59:3a:e5:5b:d5:70:99:b8:d7:a9:8a:db:25:2d:62:
                    fd:c6:01:a4:eb:68:d6:9f:42:41:25:17:86:1f:b4:
                    92:67:1b:32:25:bf:78:78:c2:e8:c5:31:ba:67:46:
                    9e:7f:bf:13:bc:83:d9:52:b7:9c:00:2e:98:5f:66:
                    a4:e3:5b:87:ee:54:2f:26:f6:ed:16:8a:2a:80:ee:
                    c4:30:ab:9a:f4:48:b0:02:15:49:e3:84:79:b5:7f:
                    6c:27:7c:c6:75:f3:ca:b6:8e:1b:e9:17:db:0a:1a:
                    4e:23:e2:7d:ec:f6:fe:8f:48:21:2f:1a:0d:b7:87:
                    ad:d4:d2:e0:59:29:ac:a8:c2:f3:38:0c:56:c0:e6:
                    f7:49:2d:73:8b:ea:3a:7b:c3:60:04:37:07:f9:8b:
                    40:73
                Exponent: 65537 (0x10001)
        X509v3 extensions:
            X509v3 Basic Constraints: 
                CA:FALSE
            X509v3 Key Usage: 
                Digital Signature, Non Repudiation, Key Encipherment
            X509v3 Subject Alternative Name: 
                IP Address:192.168.0.1
    Signature Algorithm: sha256WithRSAEncryption
         4b:e7:f7:35:b0:a7:20:de:74:69:f8:f5:e5:e0:c8:cb:7a:e0:
         fc:dc:7b:a5:d3:50:4b:ad:3e:e4:74:02:f4:60:b9:8b:27:cb:
         67:c2:da:48:73:b2:99:a4:af:c5:f4:46:c4:dc:97:4d:40:6d:
         bd:92:21:53:15:80:98:22:cb:04:e5:d1:b0:08:87:a2:fa:40:
         43:68:82:53:bc:5a:5c:26:62:61:1e:79:46:0d:56:aa:3f:a1:
         a9:10:34:09:d0:ec:80:ab:88:2d:86:3d:5f:3c:6f:03:e7:4b:
         de:97:0f:1b:95:43:ed:07:ef:8e:44:33:29:84:d5:09:c5:7e:
         24:f3:c2:8b:c4:0f:15:76:02:9c:db:16:68:8d:22:d2:3d:df:
         79:00:4b:4d:cf:62:28:ad:a9:67:59:a6:5b:ad:64:93:97:f5:
         0e:f9:30:52:3a:56:8b:27:1a:93:ac:ca:86:f3:62:46:bb:d4:
         a7:d0:4a:a7:09:7f:51:eb:5d:3b:1b:88:73:36:fd:78:bb:37:
         e5:29:d3:d9:1f:2a:56:5a:d9:7a:65:9d:c0:21:c5:19:5f:e1:
         57:dc:8f:c4:60:39:85:ca:14:08:0f:92:cf:56:93:5f:a5:66:
         af:f8:8b:b0:d7:78:56:0a:35:6a:a6:3b:9b:37:21:b7:22:fe:
         3c:43:8c:e4
-----BEGIN CERTIFICATE-----
MIIDiTCCAnECCQD9NlXUW96zfTANBgkqhkiG9w0BAQsFADBVMQswCQYDVQQGEwJF
UzEPMA0GA1UECBMGTWFsYWdhMQ8wDQYDVQQHEwZNYWxhZ2ExDjAMBgNVBAoTBU1P
VEFNMRQwEgYDVQQDEwtDQSBkZSBNT1RBTTAeFw0xOTAyMDcxMDM5MTNaFw0yMDAy
MDcxMDM5MTNaMIGKMQswCQYDVQQGEwJFUzEPMA0GA1UECBMGTWFsYWdhMQ8wDQYD
VQQHEwZNYWxhZ2ExDjAMBgNVBAoTBU1PVEFNMRMwEQYDVQQLEwplbWVyZ2VuY2lh
MRAwDgYDVQQDEwc1NjU0REZUMSIwIAYJKoZIhvcNAQkBFhNlbWVyZ2VuY2lhQG1v
dGFtLmVzMIIBIjANBgkqhkiG9w0BAQEFAAOCAQ8AMIIBCgKCAQEAn+1vQMU6cnfp
S95PXW+fMNANZhFkzQVeVpg/gVtvmKeZKFe6EOriRZbXTGzqN5vslF/UuDybYDoy
hoQHfzgAm//yy2te08Uzs35drU0b180/sgRENrnXE/Vx3m8qRTwCe4Wsv6weEmdZ
OuVb1XCZuNepitslLWL9xgGk62jWn0JBJReGH7SSZxsyJb94eMLoxTG6Z0aef78T
vIPZUrecAC6YX2ak41uH7lQvJvbtFooqgO7EMKua9EiwAhVJ44R5tX9sJ3zGdfPK
to4b6RfbChpOI+J97Pb+j0ghLxoNt4et1NLgWSmsqMLzOAxWwOb3SS1zi+o6e8Ng
BDcH+YtAcwIDAQABoyswKTAJBgNVHRMEAjAAMAsGA1UdDwQEAwIF4DAPBgNVHREE
CDAGhwTAqAABMA0GCSqGSIb3DQEBCwUAA4IBAQBL5/c1sKcg3nRp+PXl4MjLeuD8
3Hul01BLrT7kdAL0YLmLJ8tnwtpIc7KZpK/F9EbE3JdNQG29kiFTFYCYIssE5dGw
CIei+kBDaIJTvFpcJmJhHnlGDVaqP6GpEDQJ0OyAq4gthj1fPG8D50velw8blUPt
B++ORDMphNUJxX4k88KLxA8VdgKc2xZojSLSPd95AEtNz2IoralnWaZbrWSTl/UO
+TBSOlaLJxqTrMqG82JGu9Sn0EqnCX9R6107G4hzNv14uzflKdPZHypWWtl6ZZ3A
IcUZX+FX3I/EYDmFyhQID5LPVpNfpWav+Iuw13hWCjVqpjubNyG3Iv48Q4zk
-----END CERTIFICATE-----
