Certificate:
    Data:
        Version: 3 (0x2)
        Serial Number:
            fd:36:55:d4:5b:de:b5:e9
    Signature Algorithm: sha256WithRSAEncryption
        Issuer: C=ES, ST=Malaga, L=Malaga, O=MOTAM, CN=CA de MOTAM
        Validity
            Not Before: Jul  4 11:11:35 2019 GMT
            Not After : Jul  3 11:11:35 2020 GMT
        Subject: C=ES, ST=Malaga, L=Malaga, O=MOTAM, OU=0, CN=3456ABC/emailAddress=info@motam.es
        Subject Public Key Info:
            Public Key Algorithm: rsaEncryption
                Public-Key: (2048 bit)
                Modulus:
                    00:b2:8b:05:2d:61:3b:68:d6:f0:e6:1a:50:67:17:
                    cf:62:71:80:83:44:89:fa:ea:89:3f:a9:12:96:3c:
                    e4:0a:5f:17:2f:b8:d2:c5:b4:c4:54:67:22:0c:82:
                    df:73:83:0b:79:ce:d6:da:61:d0:60:1f:03:56:4d:
                    ba:23:4c:d1:dd:d5:8e:46:e2:f5:af:61:fb:76:38:
                    24:33:84:11:bb:be:97:22:2d:3f:ee:a1:fc:b5:58:
                    b2:1b:8c:ee:0a:5d:72:da:88:9f:fe:e0:7e:33:f1:
                    b8:dd:65:c0:d5:18:0c:d9:b3:9d:8b:76:46:31:2e:
                    36:d2:89:df:1d:75:d7:15:ed:48:e4:30:e9:e4:3f:
                    29:29:e2:10:bd:97:12:32:f8:79:62:b0:84:c4:03:
                    f2:a7:65:4e:c7:06:52:51:a8:7c:3b:7f:e0:e5:d8:
                    ec:f8:23:3b:88:4e:0b:b1:8a:a7:9c:a1:c4:5d:ce:
                    50:96:c1:d1:30:f2:21:86:a5:72:5b:b9:9d:67:43:
                    12:ba:93:c8:2d:82:da:ae:0f:5b:b2:b4:ea:46:e9:
                    09:e6:1d:35:68:8b:05:43:ff:a8:b0:a5:8e:43:38:
                    2b:64:3c:66:33:08:dd:b0:dd:30:60:62:31:0d:c6:
                    66:d4:dc:19:bc:38:65:a9:7b:0e:c0:45:a8:3d:50:
                    ae:95
                Exponent: 65537 (0x10001)
        X509v3 extensions:
            X509v3 Basic Constraints: 
                CA:FALSE
            X509v3 Key Usage: 
                Digital Signature, Non Repudiation, Key Encipherment
            X509v3 Subject Alternative Name: 
                IP Address:192.168.0.1
    Signature Algorithm: sha256WithRSAEncryption
         17:75:f0:24:49:bc:d7:50:98:77:71:db:58:88:ec:4d:19:a6:
         b6:0b:f4:7f:54:e6:70:f7:d7:56:82:ae:f8:14:93:6b:80:23:
         6e:d7:02:ad:4e:f1:b7:71:a5:8d:a7:38:d0:ac:1c:b8:19:56:
         63:90:1a:8d:de:2b:40:e1:c8:bb:4c:b7:2f:f8:f5:5e:7e:40:
         b7:37:ef:ea:a4:55:80:75:ec:13:5e:ca:08:a7:68:5a:08:90:
         e4:ed:82:6e:74:e2:c1:58:77:83:2f:05:c2:ae:99:95:38:0e:
         f8:45:5f:8d:38:18:77:5e:57:2a:0a:93:cc:b4:54:20:15:b7:
         fd:03:73:21:b9:89:4d:33:c9:c1:ec:62:7c:15:77:89:58:f9:
         8b:0a:49:8e:6c:20:96:78:35:e3:91:14:2d:74:38:eb:76:4c:
         cb:61:25:29:4c:98:c1:93:a6:e5:03:56:9f:f0:0d:b7:0a:a0:
         2f:ca:10:0b:9f:4e:f4:4c:51:38:9c:91:1f:25:1e:4a:48:71:
         be:28:34:e1:b5:5c:41:1b:83:73:fe:d5:d8:09:8b:ac:95:be:
         b7:a2:6e:76:69:af:34:fd:12:78:45:d3:80:36:21:6a:03:a9:
         11:54:0c:69:89:05:65:79:fa:f2:2a:cd:3e:52:ab:fc:63:bd:
         3a:ec:c2:b2
-----BEGIN CERTIFICATE-----
MIIDfjCCAmagAwIBAgIJAP02VdRb3rXpMA0GCSqGSIb3DQEBCwUAMFUxCzAJBgNV
BAYTAkVTMQ8wDQYDVQQIEwZNYWxhZ2ExDzANBgNVBAcTBk1hbGFnYTEOMAwGA1UE
ChMFTU9UQU0xFDASBgNVBAMTC0NBIGRlIE1PVEFNMB4XDTE5MDcwNDExMTEzNVoX
DTIwMDcwMzExMTEzNVowezELMAkGA1UEBhMCRVMxDzANBgNVBAgTBk1hbGFnYTEP
MA0GA1UEBxMGTWFsYWdhMQ4wDAYDVQQKEwVNT1RBTTEKMAgGA1UECxMBMDEQMA4G
A1UEAxMHMzQ1NkFCQzEcMBoGCSqGSIb3DQEJARYNaW5mb0Btb3RhbS5lczCCASIw
DQYJKoZIhvcNAQEBBQADggEPADCCAQoCggEBALKLBS1hO2jW8OYaUGcXz2JxgINE
ifrqiT+pEpY85ApfFy+40sW0xFRnIgyC33ODC3nO1tph0GAfA1ZNuiNM0d3Vjkbi
9a9h+3Y4JDOEEbu+lyItP+6h/LVYshuM7gpdctqIn/7gfjPxuN1lwNUYDNmznYt2
RjEuNtKJ3x111xXtSOQw6eQ/KSniEL2XEjL4eWKwhMQD8qdlTscGUlGofDt/4OXY
7PgjO4hOC7GKp5yhxF3OUJbB0TDyIYalclu5nWdDErqTyC2C2q4PW7K06kbpCeYd
NWiLBUP/qLCljkM4K2Q8ZjMI3bDdMGBiMQ3GZtTcGbw4Zal7DsBFqD1QrpUCAwEA
AaMrMCkwCQYDVR0TBAIwADALBgNVHQ8EBAMCBeAwDwYDVR0RBAgwBocEwKgAATAN
BgkqhkiG9w0BAQsFAAOCAQEAF3XwJEm811CYd3HbWIjsTRmmtgv0f1TmcPfXVoKu
+BSTa4AjbtcCrU7xt3Gljac40KwcuBlWY5Aajd4rQOHIu0y3L/j1Xn5Atzfv6qRV
gHXsE17KCKdoWgiQ5O2CbnTiwVh3gy8Fwq6ZlTgO+EVfjTgYd15XKgqTzLRUIBW3
/QNzIbmJTTPJwexifBV3iVj5iwpJjmwglng145EULXQ463ZMy2ElKUyYwZOm5QNW
n/ANtwqgL8oQC59O9ExROJyRHyUeSkhxvig04bVcQRuDc/7V2AmLrJW+t6Judmmv
NP0SeEXTgDYhagOpEVQMaYkFZXn68irNPlKr/GO9OuzCsg==
-----END CERTIFICATE-----
