Certificate:
    Data:
        Version: 3 (0x2)
        Serial Number:
            fd:36:55:d4:5b:de:b5:81
    Signature Algorithm: sha256WithRSAEncryption
        Issuer: C=ES, ST=Malaga, L=Malaga, O=MOTAM, CN=CA de MOTAM
        Validity
            Not Before: Jun 13 09:10:22 2019 GMT
            Not After : Jun 12 09:10:22 2020 GMT
        Subject: C=ES, ST=Malaga, L=Malaga, O=MOTAM, OU=normal, CN=0000AAA/emailAddress=info@motam.es
        Subject Public Key Info:
            Public Key Algorithm: rsaEncryption
                Public-Key: (2048 bit)
                Modulus:
                    00:bf:d0:98:06:11:fa:b0:83:69:a0:03:5f:cf:e2:
                    dc:26:58:77:dd:af:24:11:40:08:66:00:10:03:26:
                    b8:5e:4c:98:4b:83:bc:66:0a:56:0b:24:cf:02:7b:
                    a4:2d:75:84:69:d3:a3:3c:78:3f:38:cf:3d:fd:53:
                    00:5b:c5:92:fc:58:dc:ca:bb:07:cd:38:a4:8a:98:
                    81:32:93:c7:8c:3b:db:37:e4:89:75:44:d7:e9:44:
                    07:e2:ef:7e:14:01:e9:14:9b:6b:93:92:7a:31:25:
                    08:03:27:4d:7b:16:ce:18:62:72:7c:42:8a:40:29:
                    bf:21:52:50:c3:6c:81:a0:4f:59:73:b0:d7:01:b4:
                    a3:31:6d:3f:a5:9a:9f:85:82:ea:d1:76:bf:cf:99:
                    7e:ff:eb:15:f1:55:4c:9f:44:2a:f2:6b:8d:ef:66:
                    8c:1a:8f:3e:a4:6e:89:bb:6b:ac:cb:1e:9f:9f:b9:
                    2f:d6:a3:6a:3f:c9:6b:a3:e7:4f:d7:5e:5d:79:55:
                    2c:7a:93:80:04:d5:41:a8:56:02:e0:44:02:85:32:
                    4e:2a:15:98:26:ab:48:12:25:50:7c:db:9e:a0:71:
                    9f:9b:a9:a1:9b:a7:c7:80:24:00:fb:88:41:8a:63:
                    31:39:dd:ef:ac:4e:3c:d8:97:79:c7:89:65:33:d5:
                    e1:bb
                Exponent: 65537 (0x10001)
        X509v3 extensions:
            X509v3 Basic Constraints: 
                CA:FALSE
            X509v3 Key Usage: 
                Digital Signature, Non Repudiation, Key Encipherment
            X509v3 Subject Alternative Name: 
                IP Address:192.168.0.1
    Signature Algorithm: sha256WithRSAEncryption
         32:4d:25:01:5e:e0:5b:72:f6:3a:c1:dd:6e:77:c2:02:85:5c:
         6b:f7:d6:93:b8:8b:f5:02:fa:39:5b:0b:02:c0:6f:6e:99:51:
         f8:84:ca:a8:66:58:37:8b:24:51:8e:89:5d:9a:13:1b:38:3a:
         27:1a:99:65:5a:77:41:2d:c7:a0:4d:c0:da:97:fb:72:84:d2:
         f5:99:a0:5b:4c:fd:fa:d5:97:b1:9a:34:c3:ee:2d:fe:ea:1f:
         da:95:b0:f2:28:73:2d:16:99:1c:bc:a5:e7:49:05:04:82:9c:
         3d:5c:06:fe:52:7d:d2:07:ad:8e:e3:a6:b2:73:47:a1:60:a0:
         a4:64:36:ad:62:4f:a9:1c:f1:be:d1:5f:c5:f4:d2:27:56:ee:
         b5:ab:34:48:93:33:76:b5:69:ac:73:ab:29:4e:2c:52:05:b1:
         f4:a4:18:c5:20:5e:9c:d7:7d:88:6f:c3:25:00:0b:79:de:d0:
         12:d1:b5:fa:ac:07:e5:92:15:64:28:ec:f9:ec:b6:8c:e2:dd:
         81:06:75:06:d0:0c:1e:d5:e2:e8:a6:fd:b5:7d:a0:6e:35:3b:
         81:2e:ea:9d:dd:83:6a:1b:99:ac:5a:4c:7e:84:b0:3c:de:12:
         c6:c5:b4:0d:2e:9e:b8:51:d6:ec:bf:59:08:ca:97:27:aa:25:
         11:a9:2d:b3
-----BEGIN CERTIFICATE-----
MIIDhDCCAmygAwIBAgIJAP02VdRb3rWBMA0GCSqGSIb3DQEBCwUAMFUxCzAJBgNV
BAYTAkVTMQ8wDQYDVQQIEwZNYWxhZ2ExDzANBgNVBAcTBk1hbGFnYTEOMAwGA1UE
ChMFTU9UQU0xFDASBgNVBAMTC0NBIGRlIE1PVEFNMB4XDTE5MDYxMzA5MTAyMloX
DTIwMDYxMjA5MTAyMlowgYAxCzAJBgNVBAYTAkVTMQ8wDQYDVQQIEwZNYWxhZ2Ex
DzANBgNVBAcTBk1hbGFnYTEOMAwGA1UEChMFTU9UQU0xDzANBgNVBAsTBm5vcm1h
bDEQMA4GA1UEAxMHMDAwMEFBQTEcMBoGCSqGSIb3DQEJARYNaW5mb0Btb3RhbS5l
czCCASIwDQYJKoZIhvcNAQEBBQADggEPADCCAQoCggEBAL/QmAYR+rCDaaADX8/i
3CZYd92vJBFACGYAEAMmuF5MmEuDvGYKVgskzwJ7pC11hGnTozx4PzjPPf1TAFvF
kvxY3Mq7B804pIqYgTKTx4w72zfkiXVE1+lEB+LvfhQB6RSba5OSejElCAMnTXsW
zhhicnxCikApvyFSUMNsgaBPWXOw1wG0ozFtP6Wan4WC6tF2v8+Zfv/rFfFVTJ9E
KvJrje9mjBqPPqRuibtrrMsen5+5L9ajaj/Ja6PnT9deXXlVLHqTgATVQahWAuBE
AoUyTioVmCarSBIlUHzbnqBxn5upoZunx4AkAPuIQYpjMTnd76xOPNiXeceJZTPV
4bsCAwEAAaMrMCkwCQYDVR0TBAIwADALBgNVHQ8EBAMCBeAwDwYDVR0RBAgwBocE
wKgAATANBgkqhkiG9w0BAQsFAAOCAQEAMk0lAV7gW3L2OsHdbnfCAoVca/fWk7iL
9QL6OVsLAsBvbplR+ITKqGZYN4skUY6JXZoTGzg6JxqZZVp3QS3HoE3A2pf7coTS
9ZmgW0z9+tWXsZo0w+4t/uof2pWw8ihzLRaZHLyl50kFBIKcPVwG/lJ90getjuOm
snNHoWCgpGQ2rWJPqRzxvtFfxfTSJ1butas0SJMzdrVprHOrKU4sUgWx9KQYxSBe
nNd9iG/DJQALed7QEtG1+qwH5ZIVZCjs+ey2jOLdgQZ1BtAMHtXi6Kb9tX2gbjU7
gS7qnd2DahuZrFpMfoSwPN4SxsW0DS6euFHW7L9ZCMqXJ6olEaktsw==
-----END CERTIFICATE-----
