Certificate:
    Data:
        Version: 3 (0x2)
        Serial Number:
            fd:36:55:d4:5b:de:b5:ea
    Signature Algorithm: sha256WithRSAEncryption
        Issuer: C=ES, ST=Malaga, L=Malaga, O=MOTAM, CN=CA de MOTAM
        Validity
            Not Before: Jul  4 11:12:02 2019 GMT
            Not After : Jul  3 11:12:02 2020 GMT
        Subject: CN=1234568Z
        Subject Public Key Info:
            Public Key Algorithm: rsaEncryption
                Public-Key: (2048 bit)
                Modulus:
                    00:af:c5:11:be:19:9f:25:d2:70:23:86:1c:fa:df:
                    c2:ba:b1:3c:21:38:9d:1e:68:58:59:78:7b:34:cc:
                    da:22:a0:20:5a:fc:dd:a5:37:6d:4a:fe:50:08:ab:
                    6f:f4:87:fd:87:1f:06:ba:94:e5:eb:6e:e0:85:bb:
                    9e:d7:92:6d:7a:92:18:b1:48:30:31:27:8b:44:5d:
                    fa:82:cf:7d:db:8f:04:ae:6a:e5:52:99:2f:41:3a:
                    ff:d0:0f:40:4b:0c:85:2e:e8:d5:b4:f3:1a:13:3d:
                    30:07:20:f5:71:35:ea:7e:6e:ad:19:0e:01:cc:9a:
                    44:c1:51:b8:8e:87:e0:af:e2:04:14:86:2a:42:33:
                    a2:bc:30:d6:7f:9e:8d:53:06:9b:18:32:06:2a:0d:
                    24:a8:0b:fd:86:45:64:aa:68:ed:d3:8c:95:7a:8c:
                    9a:c5:19:16:2b:1f:d6:45:bd:db:55:f9:63:32:eb:
                    a5:a5:b1:24:a6:9c:ba:a0:c9:12:0b:4a:23:16:88:
                    10:21:d0:cf:a3:13:70:45:91:a7:4f:6d:7a:c3:63:
                    68:26:36:8a:3e:84:f8:d9:b9:14:7e:16:2c:37:05:
                    27:39:04:1d:0b:f7:df:3b:96:1a:22:50:0b:d4:ca:
                    24:38:ce:7f:f3:72:9c:1d:9c:16:cd:6e:a9:68:2d:
                    b5:63
                Exponent: 65537 (0x10001)
        X509v3 extensions:
            X509v3 Basic Constraints: 
                CA:FALSE
            X509v3 Key Usage: 
                Digital Signature, Non Repudiation, Key Encipherment
    Signature Algorithm: sha256WithRSAEncryption
         7b:fa:b4:38:3f:5a:f2:25:e4:ab:03:25:00:b7:26:dc:bd:66:
         69:32:ac:ef:6c:1e:25:14:1c:82:d1:e0:9c:4e:84:40:c3:e4:
         34:f9:2f:e5:97:95:04:b4:1f:ad:7c:d6:e6:4d:76:a1:4c:43:
         cf:82:c4:5b:5f:09:0e:87:08:2c:6a:cf:98:3b:84:c2:93:95:
         38:4f:dc:ac:68:55:ba:96:57:e7:ce:1b:8d:13:f1:2b:73:61:
         29:c2:33:85:41:46:d6:39:d8:e8:79:59:10:3d:26:f8:92:aa:
         aa:d0:b6:f0:1c:f3:fc:79:b5:9b:9a:25:93:4a:71:18:8c:f1:
         76:c6:c1:ce:29:7f:29:e5:da:4d:ba:7f:ee:c3:0d:cc:8f:31:
         d2:7e:82:61:71:cb:3a:b1:cc:2f:4e:3a:a3:a5:bf:cc:f0:36:
         a1:8e:e1:58:83:e5:9c:ab:04:ab:95:1f:e1:fd:10:e5:ce:42:
         6c:5f:a0:17:6d:7d:5b:61:cf:e9:ae:fb:5a:a6:f5:ed:59:43:
         50:49:17:1d:64:cd:fd:8c:a7:7f:bb:b5:8b:87:98:c4:22:b1:
         6d:b9:b6:29:68:2d:c3:37:e9:f4:c0:0c:12:77:32:b8:d9:1a:
         d0:98:5f:0d:95:53:c9:54:46:90:aa:21:36:f0:20:72:5e:e6:
         98:e3:87:90
-----BEGIN CERTIFICATE-----
MIIDBTCCAe2gAwIBAgIJAP02VdRb3rXqMA0GCSqGSIb3DQEBCwUAMFUxCzAJBgNV
BAYTAkVTMQ8wDQYDVQQIEwZNYWxhZ2ExDzANBgNVBAcTBk1hbGFnYTEOMAwGA1UE
ChMFTU9UQU0xFDASBgNVBAMTC0NBIGRlIE1PVEFNMB4XDTE5MDcwNDExMTIwMloX
DTIwMDcwMzExMTIwMlowEzERMA8GA1UEAxMIMTIzNDU2OFowggEiMA0GCSqGSIb3
DQEBAQUAA4IBDwAwggEKAoIBAQCvxRG+GZ8l0nAjhhz638K6sTwhOJ0eaFhZeHs0
zNoioCBa/N2lN21K/lAIq2/0h/2HHwa6lOXrbuCFu57Xkm16khixSDAxJ4tEXfqC
z33bjwSuauVSmS9BOv/QD0BLDIUu6NW08xoTPTAHIPVxNep+bq0ZDgHMmkTBUbiO
h+Cv4gQUhipCM6K8MNZ/no1TBpsYMgYqDSSoC/2GRWSqaO3TjJV6jJrFGRYrH9ZF
vdtV+WMy66WlsSSmnLqgyRILSiMWiBAh0M+jE3BFkadPbXrDY2gmNoo+hPjZuRR+
Fiw3BSc5BB0L9987lhoiUAvUyiQ4zn/zcpwdnBbNbqloLbVjAgMBAAGjGjAYMAkG
A1UdEwQCMAAwCwYDVR0PBAQDAgXgMA0GCSqGSIb3DQEBCwUAA4IBAQB7+rQ4P1ry
JeSrAyUAtybcvWZpMqzvbB4lFByC0eCcToRAw+Q0+S/ll5UEtB+tfNbmTXahTEPP
gsRbXwkOhwgsas+YO4TCk5U4T9ysaFW6llfnzhuNE/Erc2EpwjOFQUbWOdjoeVkQ
PSb4kqqq0LbwHPP8ebWbmiWTSnEYjPF2xsHOKX8p5dpNun/uww3MjzHSfoJhccs6
scwvTjqjpb/M8DahjuFYg+WcqwSrlR/h/RDlzkJsX6AXbX1bYc/prvtapvXtWUNQ
SRcdZM39jKd/u7WLh5jEIrFtubYpaC3DN+n0wAwSdzK42RrQmF8NlVPJVEaQqiE2
8CByXuaY44eQ
-----END CERTIFICATE-----
