Certificate:
    Data:
        Version: 1 (0x0)
        Serial Number:
            b1:51:19:61:89:de:b7:82
    Signature Algorithm: sha256WithRSAEncryption
        Issuer: C=ES, ST=M\xC3\xA1laga, O=MOTAM, CN=CA MOTAM
        Validity
            Not Before: Nov 27 18:30:58 2018 GMT
            Not After : Nov 27 18:30:58 2019 GMT
        Subject: C=ES, ST=M\xE1laga, L=M\xE1laga, O=MOTAM, OU=normal, CN=1234GGG/emailAddress=in@in.es
        Subject Public Key Info:
            Public Key Algorithm: rsaEncryption
                Public-Key: (2048 bit)
                Modulus:
                    00:c3:b9:bf:47:c1:5e:8e:be:80:b1:08:11:4a:77:
                    07:17:67:83:73:1e:50:da:aa:c9:0c:63:e3:82:ef:
                    b7:38:2e:66:e6:1c:31:4f:55:0d:e3:42:93:ad:79:
                    5c:d0:74:89:bf:c9:63:32:e2:77:c3:f7:21:cf:50:
                    cf:62:ea:e7:bf:65:e9:02:14:c0:eb:ce:11:a1:49:
                    94:b5:96:2c:7a:87:f3:17:c5:0b:18:ed:b7:e1:b4:
                    d2:6a:12:9c:10:31:5f:fc:d1:96:ac:b2:d1:a3:c1:
                    ab:71:32:28:ae:e0:72:73:ff:a1:6c:6e:38:d1:5a:
                    2b:4a:c7:23:b2:60:ea:9e:c2:69:b5:1c:c9:fe:31:
                    70:56:d7:e1:f1:87:d6:98:57:1b:4e:f3:46:9d:75:
                    57:23:41:d1:4f:5a:5e:89:2d:61:5b:76:ff:8e:85:
                    4f:13:39:5b:03:e0:03:ba:d8:1f:ac:98:12:b0:56:
                    2c:fb:0d:6f:a6:42:91:87:ae:45:df:57:27:60:c6:
                    92:e4:c8:ca:45:92:a3:da:a1:65:72:59:fb:b8:0e:
                    67:a8:a5:2f:af:4b:c1:9c:3c:4a:7d:8f:5a:2d:93:
                    35:c1:c8:5b:03:a4:ca:9e:62:8b:c2:b1:99:58:08:
                    0f:ee:86:5c:a2:61:9c:63:8f:f5:b0:36:c4:01:e5:
                    39:65
                Exponent: 65537 (0x10001)
        X509v3 extensions:
            X509v3 Basic Constraints: 
                CA:FALSE
            X509v3 Key Usage: 
                Digital Signature, Non Repudiation, Key Encipherment
            X509v3 Subject Alternative Name: 
                IP Address:192.168.0.1
    Signature Algorithm: sha256WithRSAEncryption
         40:14:50:84:73:7b:c2:1b:6a:45:89:53:9a:56:e6:bf:d7:43:
         08:fe:b5:86:e8:23:53:4c:e0:44:13:03:2f:a0:7a:80:c8:42:
         0f:3a:2b:0c:8c:f0:ca:42:f3:e5:2b:92:06:d3:df:7e:36:ee:
         2e:3f:7c:9d:25:17:af:9d:81:d8:f4:b2:ba:94:ec:58:69:bd:
         6a:91:2b:4c:f5:5f:2b:9c:6c:ac:43:f5:06:70:0f:4e:23:e3:
         65:f0:68:c6:b6:52:c1:79:93:27:d1:96:ce:c2:71:54:fe:13:
         5b:67:af:ca:87:cb:f6:80:3a:c4:ff:de:45:07:8e:f9:50:b3:
         31:0f:db:55:df:9d:22:3d:43:21:bf:8a:ad:d6:ea:83:34:f6:
         13:a4:a7:52:56:da:0d:8a:2b:8c:cd:eb:a5:a6:de:67:ec:af:
         dd:35:d2:b1:fe:9c:ab:25:bd:2d:b6:24:c2:d1:52:d4:e9:41:
         b5:97:15:58:9d:3a:87:c7:77:52:5e:6e:92:7d:24:1f:5a:78:
         c8:4e:35:e0:b3:34:d8:5d:57:f5:dd:3b:d9:82:ad:9f:a5:c2:
         e3:1f:96:b4:da:e2:c4:6b:72:13:33:41:78:d4:45:fc:74:8b:
         ec:a8:1f:0b:b9:f6:62:75:44:ed:4a:4e:ed:04:92:99:23:46:
         06:c4:c3:1a
-----BEGIN CERTIFICATE-----
MIIDZjCCAk4CCQCxURlhid63gjANBgkqhkiG9w0BAQsFADBCMQswCQYDVQQGEwJF
UzEQMA4GA1UECBQHTcOhbGFnYTEOMAwGA1UEChMFTU9UQU0xETAPBgNVBAMTCENB
IE1PVEFNMB4XDTE4MTEyNzE4MzA1OFoXDTE5MTEyNzE4MzA1OFowezELMAkGA1UE
BhMCRVMxDzANBgNVBAgUBk3hbGFnYTEPMA0GA1UEBxQGTeFsYWdhMQ4wDAYDVQQK
EwVNT1RBTTEPMA0GA1UECxMGbm9ybWFsMRAwDgYDVQQDEwcxMjM0R0dHMRcwFQYJ
KoZIhvcNAQkBFghpbkBpbi5lczCCASIwDQYJKoZIhvcNAQEBBQADggEPADCCAQoC
ggEBAMO5v0fBXo6+gLEIEUp3Bxdng3MeUNqqyQxj44LvtzguZuYcMU9VDeNCk615
XNB0ib/JYzLid8P3Ic9Qz2Lq579l6QIUwOvOEaFJlLWWLHqH8xfFCxjtt+G00moS
nBAxX/zRlqyy0aPBq3EyKK7gcnP/oWxuONFaK0rHI7Jg6p7CabUcyf4xcFbX4fGH
1phXG07zRp11VyNB0U9aXoktYVt2/46FTxM5WwPgA7rYH6yYErBWLPsNb6ZCkYeu
Rd9XJ2DGkuTIykWSo9qhZXJZ+7gOZ6ilL69LwZw8Sn2PWi2TNcHIWwOkyp5ii8Kx
mVgID+6GXKJhnGOP9bA2xAHlOWUCAwEAAaMrMCkwCQYDVR0TBAIwADALBgNVHQ8E
BAMCBeAwDwYDVR0RBAgwBocEwKgAATANBgkqhkiG9w0BAQsFAAOCAQEAQBRQhHN7
whtqRYlTmlbmv9dDCP61hugjU0zgRBMDL6B6gMhCDzorDIzwykLz5SuSBtPffjbu
Lj98nSUXr52B2PSyupTsWGm9apErTPVfK5xsrEP1BnAPTiPjZfBoxrZSwXmTJ9GW
zsJxVP4TW2evyofL9oA6xP/eRQeO+VCzMQ/bVd+dIj1DIb+KrdbqgzT2E6SnUlba
DYorjM3rpabeZ+yv3TXSsf6cqyW9LbYkwtFS1OlBtZcVWJ06h8d3Ul5ukn0kH1p4
yE414LM02F1X9d072YKtn6XC4x+WtNrixGtyEzNBeNRF/HSL7KgfC7n2YnVE7UpO
7QSSmSNGBsTDGg==
-----END CERTIFICATE-----
