Certificate:
    Data:
        Version: 3 (0x2)
        Serial Number: 10059386636745573573 (0x8b9a1ed9658804c5)
    Signature Algorithm: sha256WithRSAEncryption
        Issuer: C=ES, ST=Malaga, O=UMA, OU=NICS Lab, CN=CA de MOTAM
        Validity
            Not Before: Jul  9 10:50:06 2018 GMT
            Not After : Jul  8 10:50:06 2021 GMT
        Subject: C=ES, ST=Malaga, O=UMA, OU=NICS Lab, CN=CA de MOTAM
        Subject Public Key Info:
            Public Key Algorithm: rsaEncryption
                Public-Key: (2048 bit)
                Modulus:
                    00:b3:6d:1c:11:f0:ae:5d:f3:0b:a5:9f:53:89:86:
                    b2:f1:a7:88:c4:11:68:68:1d:99:6a:ca:f9:73:87:
                    65:10:b3:0e:43:e6:cf:67:e7:f8:08:a4:eb:74:2c:
                    1a:c0:81:3b:77:63:a2:94:3a:d5:47:c5:42:f5:c6:
                    4d:33:93:1f:cc:4a:e2:ea:0e:a0:e5:89:8d:7b:e5:
                    21:28:ee:19:df:77:33:38:bf:23:37:d3:9c:45:64:
                    ed:d8:c0:ad:83:48:b9:c2:5e:ff:ed:fe:6e:58:f0:
                    53:19:2b:49:c4:ea:a3:4e:1e:de:2d:ed:9e:66:5b:
                    6a:1e:2d:41:44:97:8f:1f:24:1b:ca:8b:1a:3a:7e:
                    ae:fe:39:62:21:da:2f:76:2e:3c:62:e8:83:0b:2c:
                    e8:33:03:b2:17:e9:73:ab:a6:6b:d2:37:d2:17:23:
                    e1:e8:c0:e5:d1:de:e1:8b:81:65:50:68:85:57:3a:
                    b5:b5:3b:01:32:89:0f:36:94:52:dd:1a:44:f3:6a:
                    13:bf:4a:21:60:c0:f4:37:cc:2a:cf:2f:81:0f:98:
                    39:1c:dd:26:ab:85:e7:be:b2:87:74:f7:79:50:43:
                    07:b6:bd:0b:41:d0:fd:5c:7f:d8:c9:72:59:a7:c8:
                    b6:13:25:a1:1b:6d:21:67:a7:92:d0:2e:fc:ea:60:
                    88:6b
                Exponent: 65537 (0x10001)
        X509v3 extensions:
            X509v3 Subject Key Identifier: 
                61:50:5D:67:BB:AE:0C:45:CD:61:C7:14:F2:2B:09:D9:D1:CD:6B:7B
            X509v3 Authority Key Identifier: 
                keyid:61:50:5D:67:BB:AE:0C:45:CD:61:C7:14:F2:2B:09:D9:D1:CD:6B:7B
                DirName:/C=ES/ST=Malaga/O=UMA/OU=NICS Lab/CN=CA de MOTAM
                serial:8B:9A:1E:D9:65:88:04:C5

            X509v3 Basic Constraints: 
                CA:TRUE
    Signature Algorithm: sha256WithRSAEncryption
         af:5d:9e:4f:10:63:70:11:95:c4:58:eb:e8:c4:90:5b:98:8b:
         90:64:ea:00:d9:ea:d0:1c:b8:ff:45:a5:07:a8:8f:22:74:ab:
         03:c6:84:7b:a5:69:be:9e:bb:98:72:15:83:90:81:b9:1d:57:
         3a:2f:83:22:c5:a0:a2:a2:4f:6e:bd:57:97:3e:1b:01:80:af:
         f0:03:8f:d2:e8:af:3b:1b:0a:01:8a:83:cc:a2:bd:4a:7d:11:
         e9:e4:72:c0:3f:b6:73:cf:7d:70:07:d5:58:b5:de:5e:7b:c7:
         06:43:6e:c9:49:cc:00:93:a3:0b:d8:71:1c:7e:c1:4c:ed:8a:
         87:93:e7:b2:c3:0e:6c:35:76:a0:01:1f:ff:f3:9c:04:20:73:
         6a:69:c0:3f:fb:d4:33:db:89:36:7d:a1:d2:46:52:b2:4b:d7:
         7f:e5:91:d2:3a:79:0b:98:d8:e4:cb:68:c3:4a:e1:2b:b9:99:
         91:0e:0f:07:c6:78:d0:7f:bf:e2:82:1e:d9:0f:10:ca:a6:41:
         f0:a0:12:43:bd:d0:2d:a2:20:e8:7a:04:06:97:b8:8d:1b:cb:
         e7:b5:26:c7:96:67:c8:98:f5:e4:82:db:f8:63:2d:10:34:a0:
         c3:2c:8f:aa:90:7e:5f:f7:a2:be:2a:41:db:52:86:04:5f:4e:
         25:fc:6d:41
-----BEGIN CERTIFICATE-----
MIID5jCCAs6gAwIBAgIJAIuaHtlliATFMA0GCSqGSIb3DQEBCwUAMFUxCzAJBgNV
BAYTAkVTMQ8wDQYDVQQIEwZNYWxhZ2ExDDAKBgNVBAoTA1VNQTERMA8GA1UECxMI
TklDUyBMYWIxFDASBgNVBAMTC0NBIGRlIE1PVEFNMB4XDTE4MDcwOTEwNTAwNloX
DTIxMDcwODEwNTAwNlowVTELMAkGA1UEBhMCRVMxDzANBgNVBAgTBk1hbGFnYTEM
MAoGA1UEChMDVU1BMREwDwYDVQQLEwhOSUNTIExhYjEUMBIGA1UEAxMLQ0EgZGUg
TU9UQU0wggEiMA0GCSqGSIb3DQEBAQUAA4IBDwAwggEKAoIBAQCzbRwR8K5d8wul
n1OJhrLxp4jEEWhoHZlqyvlzh2UQsw5D5s9n5/gIpOt0LBrAgTt3Y6KUOtVHxUL1
xk0zkx/MSuLqDqDliY175SEo7hnfdzM4vyM305xFZO3YwK2DSLnCXv/t/m5Y8FMZ
K0nE6qNOHt4t7Z5mW2oeLUFEl48fJBvKixo6fq7+OWIh2i92Ljxi6IMLLOgzA7IX
6XOrpmvSN9IXI+HowOXR3uGLgWVQaIVXOrW1OwEyiQ82lFLdGkTzahO/SiFgwPQ3
zCrPL4EPmDkc3Sarhee+sod093lQQwe2vQtB0P1cf9jJclmnyLYTJaEbbSFnp5LQ
LvzqYIhrAgMBAAGjgbgwgbUwHQYDVR0OBBYEFGFQXWe7rgxFzWHHFPIrCdnRzWt7
MIGFBgNVHSMEfjB8gBRhUF1nu64MRc1hxxTyKwnZ0c1re6FZpFcwVTELMAkGA1UE
BhMCRVMxDzANBgNVBAgTBk1hbGFnYTEMMAoGA1UEChMDVU1BMREwDwYDVQQLEwhO
SUNTIExhYjEUMBIGA1UEAxMLQ0EgZGUgTU9UQU2CCQCLmh7ZZYgExTAMBgNVHRME
BTADAQH/MA0GCSqGSIb3DQEBCwUAA4IBAQCvXZ5PEGNwEZXEWOvoxJBbmIuQZOoA
2erQHLj/RaUHqI8idKsDxoR7pWm+nruYchWDkIG5HVc6L4MixaCiok9uvVeXPhsB
gK/wA4/S6K87GwoBioPMor1KfRHp5HLAP7Zzz31wB9VYtd5ee8cGQ27JScwAk6ML
2HEcfsFM7YqHk+eyww5sNXagAR//85wEIHNqacA/+9Qz24k2faHSRlKyS9d/5ZHS
OnkLmNjky2jDSuEruZmRDg8HxnjQf7/igh7ZDxDKpkHwoBJDvdAtoiDoegQGl7iN
G8vntSbHlmfImPXkgtv4Yy0QNKDDLI+qkH5f96K+KkHbUoYEX04l/G1B
-----END CERTIFICATE-----
