Certificate:
    Data:
        Version: 3 (0x2)
        Serial Number: 12777021524542404451 (0xb151196189deb763)
    Signature Algorithm: sha256WithRSAEncryption
        Issuer: C=ES, ST=M\xC3\xA1laga, O=MOTAM, CN=CA MOTAM
        Validity
            Not Before: Oct 22 13:50:23 2018 GMT
            Not After : Oct 21 13:50:23 2021 GMT
        Subject: C=ES, ST=M\xC3\xA1laga, O=MOTAM, CN=CA MOTAM
        Subject Public Key Info:
            Public Key Algorithm: rsaEncryption
                Public-Key: (2048 bit)
                Modulus:
                    00:de:cd:07:0e:01:2e:2d:bb:d7:2f:16:5b:2e:f9:
                    23:42:5b:70:3d:7f:c1:c3:4a:b2:da:8a:8e:47:4c:
                    91:6d:3b:b4:78:bd:be:98:e7:9d:cc:49:6b:50:c8:
                    bf:b7:26:37:3f:81:8f:ad:ce:c6:02:05:32:74:de:
                    bc:c6:72:18:7c:7d:86:54:8d:22:39:19:6a:dc:47:
                    86:bf:2b:07:a0:34:ca:74:d0:9f:4c:e9:fe:dc:1d:
                    7a:ed:20:5e:31:08:5c:df:8a:c5:67:cc:b7:be:13:
                    4a:43:95:e2:b6:01:80:d7:73:93:24:d1:14:74:80:
                    07:84:36:92:eb:ae:5c:a9:c9:d6:6b:e9:44:75:da:
                    ae:87:15:0f:e7:1d:3c:04:aa:a2:6d:11:ad:2d:4e:
                    9a:d5:41:59:bc:4a:7b:11:c1:68:12:4b:30:2e:6a:
                    f2:1e:7e:eb:b5:f2:b1:43:cb:ef:ad:8d:30:fc:35:
                    6b:4e:bb:6a:41:2f:11:e9:7d:3c:f7:c1:7e:fa:84:
                    fc:f2:30:39:c4:36:08:a6:43:76:2c:81:f5:9a:88:
                    04:dd:6f:b1:4a:d6:3e:7b:d4:ca:0b:f9:83:9c:6f:
                    e3:d2:07:57:b3:8a:38:09:1b:88:f7:a8:ff:7f:cf:
                    7a:0e:98:30:4f:e7:c2:0e:08:56:a0:f6:90:a8:90:
                    98:7d
                Exponent: 65537 (0x10001)
        X509v3 extensions:
            X509v3 Subject Key Identifier: 
                A2:D1:BD:FB:79:9D:8E:71:FA:C6:D8:B2:81:34:18:62:5F:9D:01:77
            X509v3 Authority Key Identifier: 
                keyid:A2:D1:BD:FB:79:9D:8E:71:FA:C6:D8:B2:81:34:18:62:5F:9D:01:77
                DirName:/C=ES/ST=M\xC3\xA1laga/O=MOTAM/CN=CA MOTAM
                serial:B1:51:19:61:89:DE:B7:63

            X509v3 Basic Constraints: 
                CA:TRUE
    Signature Algorithm: sha256WithRSAEncryption
         a7:ce:4c:86:65:02:4b:de:cb:70:b4:67:18:a2:3b:e0:39:d9:
         50:2b:b7:de:5b:c6:1e:01:69:5e:b2:70:50:c4:98:4d:b0:51:
         c0:12:69:69:31:d7:2b:a8:2c:1a:49:fe:cb:d6:37:3a:b8:2e:
         54:5c:1b:20:27:ad:94:09:bc:48:aa:10:ce:73:5f:c6:ee:86:
         47:e1:5e:6e:83:d4:92:c1:08:7d:08:02:fb:89:70:6e:97:f2:
         3d:fc:95:2c:54:5e:dc:d3:94:60:7b:95:6d:0b:c6:8e:ee:30:
         ad:52:3b:43:a6:8e:4b:8e:d0:ab:f4:70:df:10:dc:47:42:94:
         b7:29:3b:4c:96:22:64:94:b5:09:2f:bf:fb:d0:29:4a:fd:e9:
         b7:5e:7a:28:34:3d:00:cd:f3:3c:d0:50:a0:17:39:fd:35:89:
         5e:f4:59:ed:8c:72:d0:46:46:00:30:dd:96:0e:c2:d1:f8:4b:
         ec:c5:10:f9:f6:8d:6b:b6:3a:aa:db:fe:8f:d6:c7:14:46:cb:
         b2:c7:2d:2c:e4:f0:90:92:d3:56:9b:c8:2a:2e:7e:52:c9:04:
         04:cd:b0:22:b7:a0:87:e0:48:0a:98:93:d3:43:b4:7b:b0:7a:
         5a:8b:0d:08:55:50:82:96:dd:9f:34:d2:e0:c4:84:fc:25:6b:
         db:b5:0e:8e
-----BEGIN CERTIFICATE-----
MIIDrDCCApSgAwIBAgIJALFRGWGJ3rdjMA0GCSqGSIb3DQEBCwUAMEIxCzAJBgNV
BAYTAkVTMRAwDgYDVQQIFAdNw6FsYWdhMQ4wDAYDVQQKEwVNT1RBTTERMA8GA1UE
AxMIQ0EgTU9UQU0wHhcNMTgxMDIyMTM1MDIzWhcNMjExMDIxMTM1MDIzWjBCMQsw
CQYDVQQGEwJFUzEQMA4GA1UECBQHTcOhbGFnYTEOMAwGA1UEChMFTU9UQU0xETAP
BgNVBAMTCENBIE1PVEFNMIIBIjANBgkqhkiG9w0BAQEFAAOCAQ8AMIIBCgKCAQEA
3s0HDgEuLbvXLxZbLvkjQltwPX/Bw0qy2oqOR0yRbTu0eL2+mOedzElrUMi/tyY3
P4GPrc7GAgUydN68xnIYfH2GVI0iORlq3EeGvysHoDTKdNCfTOn+3B167SBeMQhc
34rFZ8y3vhNKQ5XitgGA13OTJNEUdIAHhDaS665cqcnWa+lEddquhxUP5x08BKqi
bRGtLU6a1UFZvEp7EcFoEkswLmryHn7rtfKxQ8vvrY0w/DVrTrtqQS8R6X0898F+
+oT88jA5xDYIpkN2LIH1mogE3W+xStY+e9TKC/mDnG/j0gdXs4o4CRuI96j/f896
DpgwT+fCDghWoPaQqJCYfQIDAQABo4GkMIGhMB0GA1UdDgQWBBSi0b37eZ2OcfrG
2LKBNBhiX50BdzByBgNVHSMEazBpgBSi0b37eZ2OcfrG2LKBNBhiX50Bd6FGpEQw
QjELMAkGA1UEBhMCRVMxEDAOBgNVBAgUB03DoWxhZ2ExDjAMBgNVBAoTBU1PVEFN
MREwDwYDVQQDEwhDQSBNT1RBTYIJALFRGWGJ3rdjMAwGA1UdEwQFMAMBAf8wDQYJ
KoZIhvcNAQELBQADggEBAKfOTIZlAkvey3C0ZxiiO+A52VArt95bxh4BaV6ycFDE
mE2wUcASaWkx1yuoLBpJ/svWNzq4LlRcGyAnrZQJvEiqEM5zX8buhkfhXm6D1JLB
CH0IAvuJcG6X8j38lSxUXtzTlGB7lW0Lxo7uMK1SO0OmjkuO0Kv0cN8Q3EdClLcp
O0yWImSUtQkvv/vQKUr96bdeeig0PQDN8zzQUKAXOf01iV70We2MctBGRgAw3ZYO
wtH4S+zFEPn2jWu2Oqrb/o/WxxRGy7LHLSzk8JCS01abyCouflLJBATNsCK3oIfg
SAqYk9NDtHuwelqLDQhVUIKW3Z800uDEhPwla9u1Do4=
-----END CERTIFICATE-----
