Certificate:
    Data:
        Version: 1 (0x0)
        Serial Number: 12777021524542404480 (0xb151196189deb780)
    Signature Algorithm: sha256WithRSAEncryption
        Issuer: C=ES, ST=M\xC3\xA1laga, O=MOTAM, CN=CA MOTAM
        Validity
            Not Before: Nov 27 15:52:04 2018 GMT
            Not After : Nov 27 15:52:04 2019 GMT
        Subject: CN=12345678Z
        Subject Public Key Info:
            Public Key Algorithm: rsaEncryption
                Public-Key: (2048 bit)
                Modulus:
                    00:c3:a2:de:b1:a5:28:8f:2c:ab:42:5e:58:e2:81:
                    2d:45:fc:66:4c:4c:e2:13:e2:b8:f3:f9:e0:17:e6:
                    c7:68:29:db:92:ba:fe:26:43:5f:46:ad:42:cd:07:
                    eb:d3:a6:d6:a8:80:35:e6:83:a6:02:47:57:a2:71:
                    c3:b1:c1:4e:ff:46:da:5c:e9:9c:57:c4:23:94:4e:
                    28:9d:6f:f3:67:f8:c3:1f:29:20:99:a9:06:54:4b:
                    7c:a6:df:d7:33:af:b4:97:78:44:6a:68:32:2f:14:
                    e1:a9:8a:ba:8c:f5:74:ae:74:8b:de:9e:c3:a7:3b:
                    96:f4:2e:ca:42:50:21:e1:a8:83:f3:32:d2:89:31:
                    11:36:4a:65:ef:dd:36:65:6e:5a:6f:0e:89:63:bf:
                    21:10:d2:70:fc:1f:0e:3e:19:fa:2a:a2:f0:71:74:
                    66:ff:4b:a2:5a:9b:d6:04:d1:fc:2b:bc:e0:99:85:
                    40:07:77:3d:80:6e:ae:e1:be:6d:4d:b9:af:d1:9d:
                    48:a5:74:5c:5c:f5:ad:da:0c:db:e8:18:ce:c9:f0:
                    09:d6:76:82:1c:70:d7:d6:01:3e:e3:8e:f0:24:2e:
                    f3:84:45:f4:14:42:4e:2c:89:09:0f:4c:73:4d:e6:
                    be:db:da:64:ec:2e:5d:62:b9:9e:81:27:ca:ab:db:
                    af:f7
                Exponent: 65537 (0x10001)
        X509v3 extensions:
            X509v3 Basic Constraints: 
                CA:FALSE
            X509v3 Key Usage: 
                Digital Signature, Non Repudiation, Key Encipherment
    Signature Algorithm: sha256WithRSAEncryption
         b7:3a:d6:cf:24:a2:fd:bd:46:17:28:ad:82:11:67:bf:85:ae:
         86:cc:06:73:df:74:9e:e7:13:cf:dd:8a:33:f3:a2:0e:17:2f:
         82:94:c8:bf:17:fa:01:c8:97:b5:4e:38:63:c7:d0:d3:63:55:
         df:6f:58:77:54:6c:c8:3b:03:7d:b9:12:6b:0d:05:9f:a1:8c:
         e6:95:bb:2b:f6:81:23:b7:90:33:b2:c5:46:5c:9d:42:e6:7f:
         7c:27:da:d3:3c:94:5b:ce:6e:77:ff:43:a2:7b:aa:5e:e4:90:
         d8:6c:8c:14:c7:6e:53:fb:f6:fd:0f:7d:62:a6:d7:95:63:b5:
         e2:5f:9d:1a:5f:94:51:f2:b4:05:34:4b:e1:48:68:c7:a4:5b:
         bd:26:60:1c:80:4a:b5:9b:55:73:e8:3b:6b:e2:e4:3a:e5:a8:
         9b:c3:b6:5e:ff:37:14:05:49:99:cf:a2:3e:f2:b4:f6:39:1f:
         ad:dc:e1:19:fb:a7:4e:02:c4:e2:4d:53:44:d8:f3:09:21:e5:
         d2:f7:11:99:80:57:b9:2b:f2:c1:a7:3b:31:54:8f:b1:97:19:
         2f:9d:5c:cf:be:ce:4d:12:98:58:79:68:15:4a:15:e6:5c:3f:
         df:cc:b1:bd:45:74:84:4e:d0:c4:8e:58:52:19:8a:24:f9:ed:
         b0:f0:ab:35
-----BEGIN CERTIFICATE-----
MIIC7jCCAdYCCQCxURlhid63gDANBgkqhkiG9w0BAQsFADBCMQswCQYDVQQGEwJF
UzEQMA4GA1UECBQHTcOhbGFnYTEOMAwGA1UEChMFTU9UQU0xETAPBgNVBAMTCENB
IE1PVEFNMB4XDTE4MTEyNzE1NTIwNFoXDTE5MTEyNzE1NTIwNFowFDESMBAGA1UE
AxMJMTIzNDU2NzhaMIIBIjANBgkqhkiG9w0BAQEFAAOCAQ8AMIIBCgKCAQEAw6Le
saUojyyrQl5Y4oEtRfxmTEziE+K48/ngF+bHaCnbkrr+JkNfRq1CzQfr06bWqIA1
5oOmAkdXonHDscFO/0baXOmcV8QjlE4onW/zZ/jDHykgmakGVEt8pt/XM6+0l3hE
amgyLxThqYq6jPV0rnSL3p7DpzuW9C7KQlAh4aiD8zLSiTERNkpl7902ZW5abw6J
Y78hENJw/B8OPhn6KqLwcXRm/0uiWpvWBNH8K7zgmYVAB3c9gG6u4b5tTbmv0Z1I
pXRcXPWt2gzb6BjOyfAJ1naCHHDX1gE+447wJC7zhEX0FEJOLIkJD0xzTea+29pk
7C5dYrmegSfKq9uv9wIDAQABoxowGDAJBgNVHRMEAjAAMAsGA1UdDwQEAwIF4DAN
BgkqhkiG9w0BAQsFAAOCAQEAtzrWzySi/b1GFyitghFnv4WuhswGc990nucTz92K
M/OiDhcvgpTIvxf6AciXtU44Y8fQ02NV329Yd1RsyDsDfbkSaw0Fn6GM5pW7K/aB
I7eQM7LFRlydQuZ/fCfa0zyUW85ud/9DonuqXuSQ2GyMFMduU/v2/Q99YqbXlWO1
4l+dGl+UUfK0BTRL4Uhox6RbvSZgHIBKtZtVc+g7a+LkOuWom8O2Xv83FAVJmc+i
PvK09jkfrdzhGfunTgLE4k1TRNjzCSHl0vcRmYBXuSvywac7MVSPsZcZL51cz77O
TRKYWHloFUoV5lw/38yxvUV0hE7QxI5YUhmKJPntsPCrNQ==
-----END CERTIFICATE-----
