Certificate:
    Data:
        Version: 1 (0x0)
        Serial Number:
            b1:51:19:61:89:de:b7:81
    Signature Algorithm: sha256WithRSAEncryption
        Issuer: C=ES, ST=M\xC3\xA1laga, O=MOTAM, CN=CA MOTAM
        Validity
            Not Before: Nov 27 18:29:56 2018 GMT
            Not After : Nov 27 18:29:56 2019 GMT
        Subject: CN=9999999F
        Subject Public Key Info:
            Public Key Algorithm: rsaEncryption
                Public-Key: (2048 bit)
                Modulus:
                    00:b9:90:94:6a:e5:79:88:99:51:da:49:ea:c4:69:
                    4f:f8:75:82:83:cd:b2:70:3b:48:83:ac:ab:44:00:
                    7f:e9:9a:79:e7:bc:56:93:25:6d:a6:ff:7c:5e:53:
                    6b:97:ce:de:95:76:ad:a3:07:36:ca:da:44:ea:15:
                    e5:73:58:60:43:e9:8d:ed:3a:97:88:fc:83:66:78:
                    12:e9:2c:9e:df:5b:4e:c9:25:03:c8:d7:b7:00:b1:
                    9b:82:47:fb:ef:ea:49:a1:a2:7a:42:c3:a9:76:d6:
                    6d:06:98:c6:a9:c3:08:8e:d1:3f:b8:d6:0d:d0:de:
                    ec:95:19:2d:5d:a7:80:27:d4:13:45:a8:6a:52:b4:
                    58:28:2d:8b:04:a4:b5:85:ed:71:c9:2a:f0:34:81:
                    41:fd:57:7f:d9:2a:6a:bd:41:40:1d:30:4e:41:3e:
                    e6:09:46:fd:93:c2:79:ec:1c:63:79:c4:cb:c0:fc:
                    66:02:1d:5c:31:ba:8b:43:8d:9b:c8:83:4c:b3:a8:
                    a7:be:8c:3f:40:31:07:72:6b:f1:05:98:db:2a:23:
                    0d:83:8f:5a:5e:1f:80:f8:8a:01:b6:f5:f5:f0:bc:
                    3b:b6:06:13:1f:f9:f4:aa:42:ec:83:34:47:57:b9:
                    9d:81:43:31:8b:67:1d:ef:96:e3:ad:d1:92:f7:5c:
                    46:db
                Exponent: 65537 (0x10001)
        X509v3 extensions:
            X509v3 Basic Constraints: 
                CA:FALSE
            X509v3 Key Usage: 
                Digital Signature, Non Repudiation, Key Encipherment
    Signature Algorithm: sha256WithRSAEncryption
         a9:6b:ad:46:6a:9e:0f:6a:d5:c7:ae:2a:a0:7e:43:07:ef:a4:
         73:a1:cc:dc:13:0c:74:a2:28:c1:82:7a:04:33:8e:a6:37:d7:
         7c:c1:fd:2c:c8:b7:ff:92:e5:39:81:0e:2a:fe:69:ea:c4:d8:
         60:57:64:33:9d:35:62:da:8d:01:c7:1f:79:e5:56:53:7f:4a:
         31:06:8b:6a:1d:5f:ca:a1:ba:80:ce:d3:04:d0:0c:95:68:00:
         5e:ea:76:fd:68:78:a4:03:b5:7b:68:34:48:0b:67:78:3b:0e:
         2f:e8:37:f6:bf:b5:29:3e:e0:be:ae:8b:3b:d0:41:08:84:9c:
         f1:25:dd:19:bf:68:b1:b4:bc:27:2a:ac:7d:68:90:5f:d0:18:
         b0:13:52:95:85:7c:99:c2:f3:0b:52:ac:0b:59:19:f4:e4:88:
         c2:4b:2e:59:95:4d:5b:b2:bf:ab:98:14:a6:c9:86:7f:e0:fb:
         33:5c:ac:55:52:de:34:37:43:76:ad:d1:09:92:e8:98:23:b3:
         9e:be:43:56:47:f7:12:ed:8a:5f:cd:2e:ac:81:53:15:73:16:
         4a:8e:08:60:0d:80:ca:44:b3:1a:04:13:b1:90:09:82:fd:d9:
         80:b6:79:42:c5:89:fa:7d:f0:08:07:8d:47:57:08:c3:cf:7f:
         95:db:9c:b2
-----BEGIN CERTIFICATE-----
MIIC7TCCAdUCCQCxURlhid63gTANBgkqhkiG9w0BAQsFADBCMQswCQYDVQQGEwJF
UzEQMA4GA1UECBQHTcOhbGFnYTEOMAwGA1UEChMFTU9UQU0xETAPBgNVBAMTCENB
IE1PVEFNMB4XDTE4MTEyNzE4Mjk1NloXDTE5MTEyNzE4Mjk1NlowEzERMA8GA1UE
AxMIOTk5OTk5OUYwggEiMA0GCSqGSIb3DQEBAQUAA4IBDwAwggEKAoIBAQC5kJRq
5XmImVHaSerEaU/4dYKDzbJwO0iDrKtEAH/pmnnnvFaTJW2m/3xeU2uXzt6Vdq2j
BzbK2kTqFeVzWGBD6Y3tOpeI/INmeBLpLJ7fW07JJQPI17cAsZuCR/vv6kmhonpC
w6l21m0GmMapwwiO0T+41g3Q3uyVGS1dp4An1BNFqGpStFgoLYsEpLWF7XHJKvA0
gUH9V3/ZKmq9QUAdME5BPuYJRv2TwnnsHGN5xMvA/GYCHVwxuotDjZvIg0yzqKe+
jD9AMQdya/EFmNsqIw2Dj1peH4D4igG29fXwvDu2BhMf+fSqQuyDNEdXuZ2BQzGL
Zx3vluOt0ZL3XEbbAgMBAAGjGjAYMAkGA1UdEwQCMAAwCwYDVR0PBAQDAgXgMA0G
CSqGSIb3DQEBCwUAA4IBAQCpa61Gap4PatXHriqgfkMH76RzoczcEwx0oijBgnoE
M46mN9d8wf0syLf/kuU5gQ4q/mnqxNhgV2QznTVi2o0Bxx955VZTf0oxBotqHV/K
obqAztME0AyVaABe6nb9aHikA7V7aDRIC2d4Ow4v6Df2v7UpPuC+ros70EEIhJzx
Jd0Zv2ixtLwnKqx9aJBf0BiwE1KVhXyZwvMLUqwLWRn05IjCSy5ZlU1bsr+rmBSm
yYZ/4PszXKxVUt40N0N2rdEJkuiYI7OevkNWR/cS7YpfzS6sgVMVcxZKjghgDYDK
RLMaBBOxkAmC/dmAtnlCxYn6ffAIB41HVwjDz3+V25yy
-----END CERTIFICATE-----
