Certificate:
    Data:
        Version: 1 (0x0)
        Serial Number:
            b1:51:19:61:89:de:b7:7c
    Signature Algorithm: sha256WithRSAEncryption
        Issuer: C=ES, ST=M\xC3\xA1laga, O=MOTAM, CN=CA MOTAM
        Validity
            Not Before: Oct 24 18:12:30 2018 GMT
            Not After : Oct 24 18:12:30 2019 GMT
        Subject: C=ES, ST=M\xE1laga, O=MOTAM, OU=normal, CN=12345678Z/emailAddress=conductor@motam.es
        Subject Public Key Info:
            Public Key Algorithm: rsaEncryption
                Public-Key: (2048 bit)
                Modulus:
                    00:a9:bc:bd:e0:4c:e6:60:80:86:dd:e9:5c:45:4f:
                    06:77:78:75:3f:ec:6c:cb:ec:db:9c:a7:9a:cf:20:
                    83:27:d7:c6:99:07:bb:b5:c8:ea:78:60:af:68:f7:
                    33:11:40:87:c5:ef:02:3c:4f:f8:e9:a1:34:a6:3d:
                    22:81:16:a9:24:c9:db:1e:96:38:6a:9f:cd:f5:34:
                    1e:68:6e:c2:04:a1:db:8c:39:ca:a3:d4:29:e4:a1:
                    6d:2c:5b:35:eb:23:24:4f:c9:68:61:4e:69:40:e9:
                    81:ea:65:17:e2:66:8e:57:aa:1f:d9:ec:60:38:41:
                    cb:d4:fc:9f:b2:3c:a2:0f:ab:51:3e:87:e2:bb:79:
                    c9:f2:a9:ef:a1:d7:83:03:7b:59:d8:a1:b4:dd:bb:
                    22:bb:ee:d9:e4:c9:03:28:b5:42:ae:85:88:72:f2:
                    70:3c:5b:d4:ca:16:d5:19:d5:9d:b3:19:0b:9e:db:
                    c2:2f:9b:ec:f9:02:c7:32:35:45:30:cc:d6:ea:9e:
                    c7:70:5b:f2:d8:12:45:7c:6b:ef:f6:69:d7:3f:87:
                    9f:61:54:b4:98:f0:b8:0d:84:0e:99:1e:90:63:0c:
                    32:4a:f6:a5:ca:2f:7a:fb:7a:c5:c7:b3:4e:9c:3e:
                    2d:c0:bb:47:30:b2:a6:49:6f:91:66:54:2e:be:61:
                    fe:d5
                Exponent: 65537 (0x10001)
        X509v3 extensions:
            X509v3 Basic Constraints: 
                CA:FALSE
            X509v3 Key Usage: 
                Digital Signature, Non Repudiation, Key Encipherment
            X509v3 Subject Alternative Name: 
                IP Address:192.168.0.1
    Signature Algorithm: sha256WithRSAEncryption
         c3:9b:e5:52:0f:58:ad:e3:8c:12:ce:22:ce:06:c6:95:94:f4:
         bd:e8:67:0f:7a:5a:73:68:e1:e7:7d:0b:63:63:8c:47:26:56:
         1a:c1:07:de:c6:c1:d5:d0:cd:48:4e:54:7d:44:9a:0f:20:01:
         aa:d8:78:92:6f:fc:89:78:75:a5:5b:38:26:8f:e1:3b:ae:1c:
         35:e6:e0:11:c3:bb:73:d1:e7:ed:e5:45:d2:9a:61:63:7f:3a:
         99:2e:bc:88:6d:79:99:63:3b:bd:be:65:00:ab:cf:61:a9:67:
         8a:bf:2d:e5:b9:46:a5:27:46:33:1d:53:7d:d4:ba:fd:6c:98:
         cf:5c:ea:c2:3d:3f:15:cf:3e:ff:91:9c:c1:63:5c:d1:af:04:
         e3:c2:a4:56:fd:16:0a:33:fb:86:7f:af:3e:00:15:a4:8e:3d:
         d2:30:df:6e:62:76:43:5e:4a:a9:0f:b6:cf:74:4f:45:76:40:
         67:20:d6:e9:e0:8a:cd:de:61:37:dd:8f:da:5d:68:0c:9b:82:
         99:20:e4:89:7f:b0:3c:41:93:ee:c2:3e:d4:49:b9:ac:8f:13:
         71:ee:f6:18:35:c8:02:c5:d9:ca:c9:c9:8d:1f:6f:6c:a1:99:
         52:5e:13:fa:93:49:99:61:74:a5:7b:ef:cd:d6:ed:16:0e:fa:
         ca:88:0a:4b
-----BEGIN CERTIFICATE-----
MIIDYTCCAkkCCQCxURlhid63fDANBgkqhkiG9w0BAQsFADBCMQswCQYDVQQGEwJF
UzEQMA4GA1UECBQHTcOhbGFnYTEOMAwGA1UEChMFTU9UQU0xETAPBgNVBAMTCENB
IE1PVEFNMB4XDTE4MTAyNDE4MTIzMFoXDTE5MTAyNDE4MTIzMFowdjELMAkGA1UE
BhMCRVMxDzANBgNVBAgUBk3hbGFnYTEOMAwGA1UEChMFTU9UQU0xDzANBgNVBAsT
Bm5vcm1hbDESMBAGA1UEAxMJMTIzNDU2NzhaMSEwHwYJKoZIhvcNAQkBFhJjb25k
dWN0b3JAbW90YW0uZXMwggEiMA0GCSqGSIb3DQEBAQUAA4IBDwAwggEKAoIBAQCp
vL3gTOZggIbd6VxFTwZ3eHU/7GzL7Nucp5rPIIMn18aZB7u1yOp4YK9o9zMRQIfF
7wI8T/jpoTSmPSKBFqkkydseljhqn831NB5obsIEoduMOcqj1CnkoW0sWzXrIyRP
yWhhTmlA6YHqZRfiZo5Xqh/Z7GA4QcvU/J+yPKIPq1E+h+K7ecnyqe+h14MDe1nY
obTduyK77tnkyQMotUKuhYhy8nA8W9TKFtUZ1Z2zGQue28Ivm+z5AscyNUUwzNbq
nsdwW/LYEkV8a+/2adc/h59hVLSY8LgNhA6ZHpBjDDJK9qXKL3r7esXHs06cPi3A
u0cwsqZJb5FmVC6+Yf7VAgMBAAGjKzApMAkGA1UdEwQCMAAwCwYDVR0PBAQDAgXg
MA8GA1UdEQQIMAaHBMCoAAEwDQYJKoZIhvcNAQELBQADggEBAMOb5VIPWK3jjBLO
Is4GxpWU9L3oZw96WnNo4ed9C2NjjEcmVhrBB97GwdXQzUhOVH1Emg8gAarYeJJv
/Il4daVbOCaP4TuuHDXm4BHDu3PR5+3lRdKaYWN/OpkuvIhteZljO72+ZQCrz2Gp
Z4q/LeW5RqUnRjMdU33Uuv1smM9c6sI9PxXPPv+RnMFjXNGvBOPCpFb9Fgoz+4Z/
rz4AFaSOPdIw325idkNeSqkPts90T0V2QGcg1ungis3eYTfdj9pdaAybgpkg5Il/
sDxBk+7CPtRJuayPE3Hu9hg1yALF2crJyY0fb2yhmVJeE/qTSZlhdKV7783W7RYO
+sqICks=
-----END CERTIFICATE-----
